; Function Attrs: mustprogress uwtable
define internal noundef float @_ZN5faiss12_GLOBAL__N_128PreTransformDistanceComputer13symmetric_disEll(ptr noundef nonnull readonly align 8 captures(none) dereferenceable(32) %0, i64 noundef %1, i64 noundef %2) unnamed_addr #1 align 2 {
  %4 = getelementptr inbounds nuw i8, ptr %0, i64 16
  %5 = load ptr, ptr %4, align 8, !tbaa !77
  %6 = load ptr, ptr %5, align 8, !tbaa !42
  %7 = getelementptr inbounds nuw i8, ptr %6, i64 24
  %8 = load ptr, ptr %7, align 8
  %9 = tail call noundef float %8(ptr noundef nonnull align 8 dereferenceable(8) %5, i64 noundef %1, i64 noundef %2)
  ret float %9
}